target datalayout = "e-m:e-p270:32:32-p271:32:32-p272:64:64-i64:64-i128:128-f80:128-n8:16:32:64-S128"
target triple = "x86_64-pc-linux-gnu"

%struct.timespec = type { i64, i64 }

@.str.4 = private unnamed_addr constant [8 x i8] c"Unroll \00", align 1
@.str.5 = private unnamed_addr constant [8 x i8] c"UnrollS\00", align 1
@.str.6 = private unnamed_addr constant [12 x i8] c"frames0.aig\00", align 1
@.str.7 = private unnamed_addr constant [12 x i8] c"frames1.aig\00", align 1
@.str.8 = private unnamed_addr constant [5 x i8] c"%s =\00", align 1
@.str.9 = private unnamed_addr constant [11 x i8] c"%9.2f sec\0A\00", align 1

; Function Attrs: nounwind uwtable
define internal void @Abc_PrintTime(i32 noundef %0, ptr noundef %1, i64 noundef %2) #0 {
  %4 = alloca i32, align 4
  %5 = alloca ptr, align 8
  %6 = alloca i64, align 8
  store i32 %0, ptr %4, align 4
  store ptr %1, ptr %5, align 8
  store i64 %2, ptr %6, align 8
  %7 = load ptr, ptr %5, align 8
  call void (i32, ptr, ...) @Abc_Print(i32 noundef 1, ptr noundef @.str.8, ptr noundef %7)
  %8 = load i64, ptr %6, align 8
  %9 = sitofp i64 %8 to double
  %10 = fmul double 1.000000e+00, %9
  %11 = fdiv double %10, 1.000000e+06
  call void (i32, ptr, ...) @Abc_Print(i32 noundef 1, ptr noundef @.str.9, double noundef %11)
  ret void
}

; Function Attrs: nounwind uwtable
define internal i64 @Abc_Clock() #0 {
  %1 = alloca i64, align 8
  %2 = alloca %struct.timespec, align 8
  %3 = alloca i64, align 8
  %4 = call i32 @clock_gettime(i32 noundef 1, ptr noundef %2) #10
  %5 = icmp slt i32 %4, 0
  br i1 %5, label %6, label %7

6:                                                ; preds = %0
  store i64 -1, ptr %1, align 8
  br label %18

7:                                                ; preds = %0
  %8 = getelementptr inbounds %struct.timespec, ptr %2, i32 0, i32 0
  %9 = load i64, ptr %8, align 8
  %10 = mul nsw i64 %9, 1000000
  store i64 %10, ptr %3, align 8
  %11 = getelementptr inbounds %struct.timespec, ptr %2, i32 0, i32 1
  %12 = load i64, ptr %11, align 8
  %13 = mul nsw i64 %12, 1000000
  %14 = sdiv i64 %13, 1000000000
  %15 = load i64, ptr %3, align 8
  %16 = add nsw i64 %15, %14
  store i64 %16, ptr %3, align 8
  %17 = load i64, ptr %3, align 8
  store i64 %17, ptr %1, align 8
  br label %18

18:                                               ; preds = %7, %6
  %19 = load i64, ptr %1, align 8
  ret i64 %19
}

; Function Attrs: nounwind uwtable
define void @Unr_ManTest(ptr noundef %0, i32 noundef %1) #0 {
  %3 = alloca ptr, align 8
  %4 = alloca i32, align 4
  %5 = alloca ptr, align 8
  %6 = alloca ptr, align 8
  %7 = alloca i64, align 8
  store ptr %0, ptr %3, align 8
  store i32 %1, ptr %4, align 4
  %8 = call i64 @Abc_Clock()
  store i64 %8, ptr %7, align 8
  %9 = load ptr, ptr %3, align 8
  %10 = load i32, ptr %4, align 4
  %11 = call ptr @Unr_ManUnroll(ptr noundef %9, i32 noundef %10)
  store ptr %11, ptr %5, align 8
  %12 = call i64 @Abc_Clock()
  %13 = load i64, ptr %7, align 8
  %14 = sub nsw i64 %12, %13
  call void @Abc_PrintTime(i32 noundef 1, ptr noundef @.str.4, i64 noundef %14)
  %15 = call i64 @Abc_Clock()
  store i64 %15, ptr %7, align 8
  %16 = load ptr, ptr %3, align 8
  %17 = load i32, ptr %4, align 4
  %18 = call ptr @Unr_ManUnrollSimple(ptr noundef %16, i32 noundef %17)
  store ptr %18, ptr %6, align 8
  %19 = call i64 @Abc_Clock()
  %20 = load i64, ptr %7, align 8
  %21 = sub nsw i64 %19, %20
  call void @Abc_PrintTime(i32 noundef 1, ptr noundef @.str.5, i64 noundef %21)
  %22 = load ptr, ptr %5, align 8
  call void @Gia_ManPrintStats(ptr noundef %22, ptr noundef null)
  %23 = load ptr, ptr %6, align 8
  call void @Gia_ManPrintStats(ptr noundef %23, ptr noundef null)
  %24 = load ptr, ptr %5, align 8
  call void @Gia_AigerWrite(ptr noundef %24, ptr noundef @.str.6, i32 noundef 0, i32 noundef 0, i32 noundef 0)
  %25 = load ptr, ptr %6, align 8
  call void @Gia_AigerWrite(ptr noundef %25, ptr noundef @.str.7, i32 noundef 0, i32 noundef 0, i32 noundef 0)
  %26 = load ptr, ptr %5, align 8
  call void @Gia_ManStop(ptr noundef %26)
  %27 = load ptr, ptr %6, align 8
  call void @Gia_ManStop(ptr noundef %27)
  ret void
}