; Function Attrs: nounwind uwtable
define void @Unr_ManTest(ptr noundef %0, i32 noundef %1) local_unnamed_addr #0 {
  %3 = alloca %struct.timespec, align 8
  %4 = alloca %struct.timespec, align 8
  %5 = alloca %struct.timespec, align 8
  %6 = alloca %struct.timespec, align 8
  call void @llvm.lifetime.start.p0(i64 16, ptr nonnull %6)
  %7 = call i32 @clock_gettime(i32 noundef 1, ptr noundef nonnull %6) #18
  %8 = icmp slt i32 %7, 0
  br i1 %8, label %Abc_Clock.exit, label %9

9:                                                ; preds = %2
  %10 = load i64, ptr %6, align 8
  %.neg17 = mul i64 %10, -1000000
  %11 = getelementptr inbounds nuw i8, ptr %6, i64 8
  %12 = load i64, ptr %11, align 8
  %.neg = sdiv i64 %12, -1000
  %.neg18 = add i64 %.neg, %.neg17
  br label %Abc_Clock.exit

Abc_Clock.exit:                                   ; preds = %2, %9
  %.0.i.neg = phi i64 [ %.neg18, %9 ], [ 1, %2 ]
  call void @llvm.lifetime.end.p0(i64 16, ptr nonnull %6)
  %13 = call ptr @Unr_ManUnroll(ptr noundef %0, i32 noundef %1)
  call void @llvm.lifetime.start.p0(i64 16, ptr nonnull %5)
  %14 = call i32 @clock_gettime(i32 noundef 1, ptr noundef nonnull %5) #18
  %15 = icmp slt i32 %14, 0
  br i1 %15, label %Abc_Clock.exit12, label %16

16:                                               ; preds = %Abc_Clock.exit
  %17 = load i64, ptr %5, align 8
  %18 = mul nsw i64 %17, 1000000
  %19 = getelementptr inbounds nuw i8, ptr %5, i64 8
  %20 = load i64, ptr %19, align 8
  %21 = sdiv i64 %20, 1000
  %22 = add nsw i64 %21, %18
  br label %Abc_Clock.exit12

Abc_Clock.exit12:                                 ; preds = %Abc_Clock.exit, %16
  %.0.i11 = phi i64 [ %22, %16 ], [ -1, %Abc_Clock.exit ]
  call void @llvm.lifetime.end.p0(i64 16, ptr nonnull %5)
  %23 = add i64 %.0.i11, %.0.i.neg
  call void (i32, ptr, ...) @Abc_Print(i32 poison, ptr noundef nonnull @.str.8, ptr noundef nonnull @.str.4)
  %24 = sitofp i64 %23 to double
  %25 = fdiv double %24, 1.000000e+06
  call void (i32, ptr, ...) @Abc_Print(i32 poison, ptr noundef nonnull @.str.9, double noundef %25)
  call void @llvm.lifetime.start.p0(i64 16, ptr nonnull %4)
  %26 = call i32 @clock_gettime(i32 noundef 1, ptr noundef nonnull %4) #18
  %27 = icmp slt i32 %26, 0
  br i1 %27, label %Abc_Clock.exit14, label %28

28:                                               ; preds = %Abc_Clock.exit12
  %29 = load i64, ptr %4, align 8
  %.neg20 = mul i64 %29, -1000000
  %30 = getelementptr inbounds nuw i8, ptr %4, i64 8
  %31 = load i64, ptr %30, align 8
  %.neg19 = sdiv i64 %31, -1000
  %.neg21 = add i64 %.neg19, %.neg20
  br label %Abc_Clock.exit14

Abc_Clock.exit14:                                 ; preds = %Abc_Clock.exit12, %28
  %.0.i13.neg = phi i64 [ %.neg21, %28 ], [ 1, %Abc_Clock.exit12 ]
  call void @llvm.lifetime.end.p0(i64 16, ptr nonnull %4)
  %32 = call ptr @Unr_ManUnrollSimple(ptr noundef %0, i32 noundef %1)
  call void @llvm.lifetime.start.p0(i64 16, ptr nonnull %3)
  %33 = call i32 @clock_gettime(i32 noundef 1, ptr noundef nonnull %3) #18
  %34 = icmp slt i32 %33, 0
  br i1 %34, label %Abc_Clock.exit16, label %35

35:                                               ; preds = %Abc_Clock.exit14
  %36 = load i64, ptr %3, align 8
  %37 = mul nsw i64 %36, 1000000
  %38 = getelementptr inbounds nuw i8, ptr %3, i64 8
  %39 = load i64, ptr %38, align 8
  %40 = sdiv i64 %39, 1000
  %41 = add nsw i64 %40, %37
  br label %Abc_Clock.exit16

Abc_Clock.exit16:                                 ; preds = %Abc_Clock.exit14, %35
  %.0.i15 = phi i64 [ %41, %35 ], [ -1, %Abc_Clock.exit14 ]
  call void @llvm.lifetime.end.p0(i64 16, ptr nonnull %3)
  %42 = add i64 %.0.i15, %.0.i13.neg
  call void (i32, ptr, ...) @Abc_Print(i32 poison, ptr noundef nonnull @.str.8, ptr noundef nonnull @.str.5)
  %43 = sitofp i64 %42 to double
  %44 = fdiv double %43, 1.000000e+06
  call void (i32, ptr, ...) @Abc_Print(i32 poison, ptr noundef nonnull @.str.9, double noundef %44)
  call void @Gia_ManPrintStats(ptr noundef %13, ptr noundef null) #18
  call void @Gia_ManPrintStats(ptr noundef %32, ptr noundef null) #18
  call void @Gia_AigerWrite(ptr noundef %13, ptr noundef nonnull @.str.6, i32 noundef 0, i32 noundef 0, i32 noundef 0) #18
  call void @Gia_AigerWrite(ptr noundef %32, ptr noundef nonnull @.str.7, i32 noundef 0, i32 noundef 0, i32 noundef 0) #18
  call void @Gia_ManStop(ptr noundef %13) #18
  call void @Gia_ManStop(ptr noundef %32) #18
  ret void
}